(dp0
I1
I2
sI2
I1
sI3
I3
sI4
I4
sI5
I5
sI6
I6
sI7
I7
sI8
I8
sI9
I9
sI10
I10
sI11
I11
sI12
I12
sI13
I13
sI100401
I100410
sI100402
I100402
sI100403
I100409
sI100404
I100408
sI100405
I100401
sI100406
I100406
sI100407
I100403
sI100408
I100405
sI100409
I100407
sI100410
I100411
sI10301
I20207
sI10302
I20206
sI10303
I20205
sI10304
I20204
sI10305
I20203
sI10306
I20202
sI10307
I20201
sI110604
I110404
sI110605
I110403
sI90201
I90209
sI90202
I90202
sI90203
I90208
sI90204
I90206
sI90205
I90201
sI90206
I90207
sI90207
I90210
sI90208
I90203
sI90209
I90205
sI90210
I90204
sI101
I201
sI102
I204
sI103
I202
sI104
I203
sI10401
I20306
sI10402
I20302
sI10403
I20304
sI10404
I20301
sI10405
I20307
sI10406
I20305
sI10407
I20303
sI10408
I20308
sI90301
I90102
sI90302
I90109
sI90303
I90101
sI90304
I90103
sI90305
I90110
sI90306
I90105
sI90307
I90104
sI90308
I90106
sI90309
I90107
sI90310
I90108
sI201
I101
sI202
I102
sI203
I104
sI204
I103
sI80101
I80101
sI80102
I80105
sI80103
I80107
sI80104
I80106
sI80105
I80108
sI80106
I80104
sI80107
I80109
sI80108
I80103
sI80109
I80102
sI90401
I90403
sI90402
I90401
sI90403
I90404
sI90404
I90402
sI90405
I90405
sI90406
I90406
sI301
I304
sI303
I301
sI304
I302
sI305
I303
sI306
I305
sI307
I306
sI80201
I80201
sI80202
I80205
sI80203
I80202
sI80204
I80204
sI80205
I80207
sI80206
I80203
sI80207
I80206
sI90501
I90502
sI90502
I90501
sI401
I404
sI402
I403
sI403
I406
sI404
I402
sI405
I405
sI406
I401
sI80301
I80306
sI80302
I80301
sI80303
I80307
sI80304
I80305
sI80305
I80303
sI80306
I80302
sI80307
I80304
sI70101
I70402
sI70102
I70412
sI70103
I70403
sI70104
I70406
sI70105
I70405
sI70106
I70410
sI70107
I70411
sI70108
I70408
sI70109
I70409
sI70110
I70404
sI70111
I70407
sI70112
I70401
sI501
I501
sI502
I502
sI503
I503
sI504
I507
sI505
I505
sI506
I506
sI507
I504
sI70201
I70201
sI70202
I70202
sI70203
I70204
sI70204
I70205
sI70205
I70207
sI70206
I70203
sI70207
I70208
sI70208
I70210
sI70209
I70209
sI70210
I70206
sI601
I604
sI602
I606
sI603
I605
sI604
I603
sI605
I602
sI606
I601
sI70301
I70508
sI70302
I70507
sI70303
I70506
sI70304
I70504
sI70305
I70511
sI70306
I70505
sI70307
I70502
sI70308
I70512
sI70309
I70509
sI70310
I70510
sI70311
I70503
sI70312
I70501
sI70313
I70513
sI701
I704
sI702
I702
sI703
I705
sI704
I703
sI705
I701
sI60101
I60401
sI60102
I60402
sI60103
I60403
sI60104
I60404
sI60105
I60405
sI130513
I100404
sI70401
I70302
sI70402
I70308
sI70403
I70301
sI70404
I70306
sI70405
I70307
sI70406
I70304
sI70407
I70305
sI70408
I70303
sI801
I801
sI802
I802
sI803
I803
sI60201
I60601
sI60204
I60602
sI60205
I60604
sI60206
I60605
sI60208
I60603
sI60209
I60606
sI60210
I60607
sI70501
I70101
sI70502
I70102
sI70503
I70103
sI70504
I70104
sI70505
I70106
sI70506
I70105
sI70507
I70107
sI70508
I70108
sI70509
I70109
sI901
I903
sI902
I902
sI903
I901
sI904
I904
sI905
I905
sI60302
I60501
sI60304
I60502
sI60309
I60503
sI60310
I60504
sI50101
I50101
sI50102
I50102
sI1001
I1002
sI1002
I1003
sI1003
I1001
sI1004
I1004
sI60401
I60301
sI60402
I60302
sI50201
I50201
sI50202
I50202
sI50203
I50203
sI130101
I130501
sI130102
I130502
sI130103
I130504
sI130104
I130503
sI1101
I1105
sI1102
I1103
sI1103
I1106
sI1104
I1102
sI1105
I1101
sI1106
I1104
sI60503
I60204
sI60504
I60201
sI60505
I60205
sI60506
I60206
sI60507
I60202
sI60508
I60203
sI50301
I50301
sI50302
I50303
sI50303
I50302
sI50304
I50304
sI130201
I130204
sI130202
I130207
sI130203
I130202
sI130204
I130209
sI130205
I130205
sI130206
I130201
sI130207
I130206
sI130208
I130203
sI130209
I130208
sI40101
I40401
sI40102
I40402
sI40103
I40403
sI40104
I40404
sI1201
I1202
sI1202
I1203
sI1203
I1201
sI1205
I1204
sI60601
I60104
sI60602
I60105
sI60603
I60106
sI60604
I60103
sI60606
I60107
sI60607
I60101
sI60611
I60102
sI50401
I50701
sI50402
I50702
sI50403
I50704
sI50404
I50703
sI50405
I50706
sI50406
I50705
sI50407
I50707
sI50408
I50708
sI130301
I130104
sI130302
I130102
sI130303
I130101
sI130304
I130103
sI130305
I130106
sI130306
I130105
sI40201
I40301
sI40202
I40302
sI40203
I40304
sI40204
I40303
sI40205
I40305
sI40206
I40306
sI1301
I1305
sI1302
I1302
sI1303
I1301
sI1304
I1303
sI1305
I1304
sI120101
I120202
sI120102
I120203
sI120103
I120201
sI120104
I120204
sI120105
I120205
sI50502
I50504
sI50504
I50503
sI50505
I50505
sI50508
I50502
sI50509
I50501
sI130401
I130304
sI130402
I130305
sI130403
I130306
sI130404
I130301
sI130405
I130302
sI130406
I130303
sI40301
I40603
sI40302
I40610
sI40303
I40607
sI40304
I40614
sI40305
I40602
sI40306
I40618
sI40307
I40612
sI40308
I40605
sI40309
I40617
sI40310
I40604
sI40311
I40606
sI40312
I40601
sI40313
I40613
sI40314
I40616
sI40315
I40609
sI40316
I40615
sI40317
I40611
sI40318
I40608
sI120201
I120301
sI120202
I120303
sI120203
I120302
sI30101
I30401
sI30102
I30405
sI30103
I30404
sI30104
I30403
sI30105
I30407
sI30106
I30409
sI30107
I30408
sI30108
I30402
sI30109
I30406
sI30110
I30410
sI50602
I50601
sI50603
I50603
sI50604
I50602
sI50605
I50604
sI130501
I130402
sI130502
I130410
sI130503
I130407
sI130504
I130409
sI130505
I130404
sI130506
I130406
sI130507
I130401
sI130508
I130403
sI130509
I130408
sI130510
I130405
sI130511
I110503
sI130512
I110603
sI40401
I40201
sI40402
I40204
sI40403
I40202
sI40404
I40207
sI40405
I40203
sI40406
I40208
sI40407
I40206
sI40408
I40205
sI120301
I120104
sI120302
I120101
sI120303
I120102
sI120308
I120105
sI30201
I30109
sI30202
I30101
sI30203
I30111
sI30204
I30103
sI30205
I30110
sI30206
I30104
sI30207
I30102
sI30209
I30108
sI50702
I50402
sI50704
I50403
sI50705
I50401
sI50706
I50404
sI110101
I110502
sI110102
I110501
sI110104
I110505
sI110105
I110504
sI40501
I40501
sI40502
I40502
sI40503
I40504
sI40504
I40503
sI40505
I40505
sI40506
I40507
sI40507
I40506
sI120401
I120106
sI120402
I120103
sI120403
I120108
sI120404
I120107
sI30302
I30107
sI30303
I30106
sI30304
I30105
sI110201
I110301
sI110202
I110303
sI110203
I110302
sI110204
I110304
sI20101
I10101
sI20102
I10104
sI20103
I10103
sI20104
I10106
sI20105
I10102
sI20106
I10105
sI20107
I10107
sI110601
I110401
sI40601
I40101
sI40602
I40102
sI40603
I40103
sI40604
I40104
sI40605
I40105
sI40606
I40106
sI40607
I40107
sI110602
I110402
sI120501
I120401
sI120502
I120402
sI30402
I30203
sI30403
I30206
sI30404
I30207
sI30405
I30204
sI30406
I30208
sI30407
I30205
sI30408
I30201
sI30409
I30202
sI110603
I110405
sI110301
I110604
sI110303
I110601
sI110304
I110602
sI110305
I110605
sI110306
I110606
sI20201
I10202
sI20202
I10201
sI20203
I10203
sI100101
I100203
sI100102
I100204
sI100103
I100201
sI100104
I100202
sI100105
I100205
sI30501
I30301
sI30502
I30302
sI30503
I30303
sI30504
I30305
sI30505
I30304
sI30506
I30309
sI30507
I30306
sI30508
I30313
sI30509
I30308
sI30510
I30307
sI30511
I30311
sI30512
I30312
sI30513
I30310
sI30514
I30314
sI30515
I30315
sI110401
I110201
sI110402
I110202
sI110403
I110203
sI20301
I10401
sI20302
I10402
sI100201
I100302
sI100202
I100304
sI100203
I100305
sI100204
I100301
sI100205
I100303
sI10108
I20103
sI10109
I20106
sI10110
I20111
sI10111
I20102
sI10112
I20107
sI10113
I20108
sI10114
I20104
sI10115
I20109
sI10116
I20110
sI10117
I20101
sI10118
I20105
sI30601
I30501
sI30602
I30507
sI30603
I30502
sI30604
I30506
sI30605
I30504
sI30606
I30503
sI30607
I30505
sI110501
I110102
sI110502
I110106
sI110503
I110104
sI110504
I110103
sI110505
I110105
sI110506
I110101
sI20401
I10304
sI20402
I10305
sI20403
I10309
sI20404
I10307
sI20405
I10308
sI20406
I10302
sI20407
I10303
sI20408
I10301
sI20409
I10306
sI100301
I100101
sI100302
I100103
sI100303
I100105
sI100304
I100106
sI100305
I100102
sI100306
I100107
sI100307
I100108
sI100308
I100104
sI10201
I20401
sI10202
I20402
sI10203
I20403
sI10204
I20404
sI10205
I20405
sI30701
I30608
sI30702
I30603
sI30703
I30601
sI30704
I30602
sI30705
I30604
sI30706
I30607
sI30707
I30606
sI30708
I30605
sI90101
I90304
sI90102
I90305
sI90103
I90301
sI90104
I90303
sI90105
I90302
sI90106
I90306
s.